; Function Attrs: nounwind uwtable
define internal void @uv__async_io(ptr noundef %0, ptr noundef readonly captures(none) %1, i32 %2) #0 {
  %4 = alloca [1024 x i8], align 16
  %5 = alloca %struct.uv__queue, align 8
  call void @llvm.lifetime.start.p0(i64 1024, ptr nonnull %4) #8
  call void @llvm.lifetime.start.p0(i64 16, ptr nonnull %5) #8
  %6 = getelementptr inbounds nuw i8, ptr %1, i64 48
  br label %.backedge17

.backedge17:                                      ; preds = %.backedge17.backedge, %3
  %7 = load i32, ptr %6, align 8
  %8 = call i64 @read(i32 noundef %7, ptr noundef nonnull %4, i64 noundef 1024) #8
  switch i64 %8, label %13 [
    i64 1024, label %.backedge17.backedge
    i64 -1, label %9
  ]

.backedge17.backedge:                             ; preds = %.backedge17, %9
  br label %.backedge17

9:                                                ; preds = %.backedge17
  %10 = tail call ptr @__errno_location() #9
  %11 = load i32, ptr %10, align 4
  switch i32 %11, label %12 [
    i32 11, label %13
    i32 4, label %.backedge17.backedge
  ]

12:                                               ; preds = %9
  tail call void @abort() #10
  unreachable

13:                                               ; preds = %9, %.backedge17
  %14 = getelementptr inbounds nuw i8, ptr %0, i64 432
  %15 = load ptr, ptr %14, align 8
  %.not.i = icmp eq ptr %14, %15
  br i1 %.not.i, label %._crit_edge, label %uv__queue_move.exit

uv__queue_move.exit:                              ; preds = %13
  %16 = getelementptr inbounds nuw i8, ptr %0, i64 440
  %17 = load ptr, ptr %16, align 8
  %18 = getelementptr inbounds nuw i8, ptr %5, i64 8
  store ptr %17, ptr %18, align 8
  store ptr %5, ptr %17, align 8
  store ptr %15, ptr %5, align 8
  %19 = getelementptr inbounds nuw i8, ptr %15, i64 8
  %20 = load ptr, ptr %19, align 8
  store ptr %20, ptr %16, align 8
  store ptr %14, ptr %20, align 8
  store ptr %5, ptr %19, align 8
  %.pre = load ptr, ptr %5, align 8
  %.not18 = icmp eq ptr %5, %.pre
  br i1 %.not18, label %._crit_edge, label %.lr.ph

.lr.ph:                                           ; preds = %uv__queue_move.exit
  %21 = getelementptr inbounds nuw i8, ptr %0, i64 440
  br label %22

22:                                               ; preds = %.lr.ph, %.backedge
  %23 = phi ptr [ %.pre, %.lr.ph ], [ %39, %.backedge ]
  %24 = getelementptr inbounds i8, ptr %23, i64 -104
  %25 = load ptr, ptr %23, align 8
  %26 = getelementptr inbounds nuw i8, ptr %23, i64 8
  %27 = load ptr, ptr %26, align 8
  store ptr %25, ptr %27, align 8
  %28 = load ptr, ptr %26, align 8
  %29 = getelementptr inbounds nuw i8, ptr %25, i64 8
  store ptr %28, ptr %29, align 8
  store ptr %14, ptr %23, align 8
  %30 = load ptr, ptr %21, align 8
  store ptr %30, ptr %26, align 8
  store ptr %23, ptr %30, align 8
  store ptr %23, ptr %21, align 8
  %31 = getelementptr inbounds nuw i8, ptr %23, i64 16
  %32 = atomicrmw xchg ptr %31, i32 0 seq_cst, align 4
  %33 = icmp eq i32 %32, 0
  br i1 %33, label %.backedge, label %34

34:                                               ; preds = %22
  %35 = getelementptr inbounds i8, ptr %23, i64 -8
  %36 = load ptr, ptr %35, align 8
  %37 = icmp eq ptr %36, null
  br i1 %37, label %.backedge, label %38

38:                                               ; preds = %34
  call void %36(ptr noundef nonnull %24) #8
  br label %.backedge

.backedge:                                        ; preds = %38, %22, %34
  %39 = load ptr, ptr %5, align 8
  %.not = icmp eq ptr %5, %39
  br i1 %.not, label %._crit_edge, label %22

._crit_edge:                                      ; preds = %.backedge, %13, %uv__queue_move.exit
  call void @llvm.lifetime.end.p0(i64 16, ptr nonnull %5) #8
  call void @llvm.lifetime.end.p0(i64 1024, ptr nonnull %4) #8
  ret void
}